target datalayout = "e-m:e-p270:32:32-p271:32:32-p272:64:64-i64:64-i128:128-f80:128-n8:16:32:64-S128"
target triple = "x86_64-pc-linux-gnu"

%struct.pseudo_merge_map = type { ptr, i64, i64, ptr, ptr, i64 }
%struct.pseudo_merge = type { ptr, ptr, i64, i64, i8 }

; Function Attrs: nounwind uwtable
define dso_local ptr @use_pseudo_merge(ptr noundef %0, ptr noundef %1) #0 {
  %3 = alloca ptr, align 8
  %4 = alloca ptr, align 8
  %5 = alloca i64, align 8
  store ptr %0, ptr %3, align 8, !tbaa !126
  store ptr %1, ptr %4, align 8, !tbaa !136
  %6 = load ptr, ptr %4, align 8, !tbaa !136
  %7 = getelementptr inbounds nuw %struct.pseudo_merge, ptr %6, i32 0, i32 4
  %8 = load i8, ptr %7, align 8
  %9 = lshr i8 %8, 1
  %10 = and i8 %9, 1
  %11 = zext i8 %10 to i32
  %12 = icmp ne i32 %11, 0
  br i1 %12, label %34, label %13

13:                                               ; preds = %2
  call void @llvm.lifetime.start.p0(i64 8, ptr %5) #10
  %14 = load ptr, ptr %4, align 8, !tbaa !136
  %15 = getelementptr inbounds nuw %struct.pseudo_merge, ptr %14, i32 0, i32 2
  %16 = load i64, ptr %15, align 8, !tbaa !140
  store i64 %16, ptr %5, align 8, !tbaa !36
  %17 = load ptr, ptr %3, align 8, !tbaa !126
  %18 = getelementptr inbounds nuw %struct.pseudo_merge_map, ptr %17, i32 0, i32 3
  %19 = load ptr, ptr %18, align 8, !tbaa !138
  %20 = load ptr, ptr %3, align 8, !tbaa !126
  %21 = getelementptr inbounds nuw %struct.pseudo_merge_map, ptr %20, i32 0, i32 5
  %22 = load i64, ptr %21, align 8, !tbaa !139
  %23 = call ptr @read_bitmap(ptr noundef %19, i64 noundef %22, ptr noundef %5)
  %24 = load ptr, ptr %4, align 8, !tbaa !136
  %25 = getelementptr inbounds nuw %struct.pseudo_merge, ptr %24, i32 0, i32 0
  store ptr %23, ptr %25, align 8, !tbaa !132
  %26 = load i64, ptr %5, align 8, !tbaa !36
  %27 = load ptr, ptr %4, align 8, !tbaa !136
  %28 = getelementptr inbounds nuw %struct.pseudo_merge, ptr %27, i32 0, i32 3
  store i64 %26, ptr %28, align 8, !tbaa !137
  %29 = load ptr, ptr %4, align 8, !tbaa !136
  %30 = getelementptr inbounds nuw %struct.pseudo_merge, ptr %29, i32 0, i32 4
  %31 = load i8, ptr %30, align 8
  %32 = and i8 %31, -3
  %33 = or i8 %32, 2
  store i8 %33, ptr %30, align 8
  call void @llvm.lifetime.end.p0(i64 8, ptr %5) #10
  br label %34

34:                                               ; preds = %13, %2
  %35 = load ptr, ptr %4, align 8, !tbaa !136
  ret ptr %35
}

; Function Attrs: nounwind uwtable
define dso_local ptr @pseudo_merge_for_parents(ptr noundef %0, ptr noundef %1) #0 {
  %3 = alloca ptr, align 8
  %4 = alloca ptr, align 8
  %5 = alloca ptr, align 8
  %6 = alloca ptr, align 8
  %7 = alloca i64, align 8
  %8 = alloca i32, align 4
  %9 = alloca ptr, align 8
  store ptr %0, ptr %4, align 8, !tbaa !126
  store ptr %1, ptr %5, align 8, !tbaa !141
  call void @llvm.lifetime.start.p0(i64 8, ptr %6) #10
  store ptr null, ptr %6, align 8, !tbaa !136
  call void @llvm.lifetime.start.p0(i64 8, ptr %7) #10
  %10 = load ptr, ptr %4, align 8, !tbaa !126
  %11 = getelementptr inbounds nuw %struct.pseudo_merge_map, ptr %10, i32 0, i32 1
  %12 = load i64, ptr %11, align 8, !tbaa !128
  %13 = icmp ne i64 %12, 0
  br i1 %13, label %15, label %14

14:                                               ; preds = %2
  store ptr null, ptr %3, align 8
  store i32 1, ptr %8, align 4
  br label %62

15:                                               ; preds = %2
  store i64 0, ptr %7, align 8, !tbaa !36
  br label %16

16:                                               ; preds = %57, %15
  %17 = load i64, ptr %7, align 8, !tbaa !36
  %18 = load ptr, ptr %4, align 8, !tbaa !126
  %19 = getelementptr inbounds nuw %struct.pseudo_merge_map, ptr %18, i32 0, i32 1
  %20 = load i64, ptr %19, align 8, !tbaa !128
  %21 = icmp ult i64 %17, %20
  br i1 %21, label %22, label %60

22:                                               ; preds = %16
  call void @llvm.lifetime.start.p0(i64 8, ptr %9) #10
  %23 = load ptr, ptr %4, align 8, !tbaa !126
  %24 = load ptr, ptr %4, align 8, !tbaa !126
  %25 = getelementptr inbounds nuw %struct.pseudo_merge_map, ptr %24, i32 0, i32 0
  %26 = load ptr, ptr %25, align 8, !tbaa !131
  %27 = load i64, ptr %7, align 8, !tbaa !36
  %28 = getelementptr inbounds nuw %struct.pseudo_merge, ptr %26, i64 %27
  %29 = call ptr @use_pseudo_merge(ptr noundef %23, ptr noundef %28)
  store ptr %29, ptr %9, align 8, !tbaa !136
  %30 = load ptr, ptr %9, align 8, !tbaa !136
  %31 = icmp ne ptr %30, null
  br i1 %31, label %32, label %39

32:                                               ; preds = %22
  %33 = load ptr, ptr %9, align 8, !tbaa !136
  %34 = getelementptr inbounds nuw %struct.pseudo_merge, ptr %33, i32 0, i32 4
  %35 = load i8, ptr %34, align 8
  %36 = and i8 %35, 1
  %37 = zext i8 %36 to i32
  %38 = icmp ne i32 %37, 0
  br i1 %38, label %39, label %40

39:                                               ; preds = %32, %22
  store i32 4, ptr %8, align 4
  br label %55

40:                                               ; preds = %32
  %41 = load ptr, ptr %5, align 8, !tbaa !141
  %42 = load ptr, ptr %9, align 8, !tbaa !136
  %43 = getelementptr inbounds nuw %struct.pseudo_merge, ptr %42, i32 0, i32 0
  %44 = load ptr, ptr %43, align 8, !tbaa !132
  %45 = call i32 @bitmap_equals_ewah(ptr noundef %41, ptr noundef %44)
  %46 = icmp ne i32 %45, 0
  br i1 %46, label %48, label %47

47:                                               ; preds = %40
  store i32 4, ptr %8, align 4
  br label %55

48:                                               ; preds = %40
  %49 = load ptr, ptr %9, align 8, !tbaa !136
  store ptr %49, ptr %6, align 8, !tbaa !136
  %50 = load ptr, ptr %6, align 8, !tbaa !136
  %51 = getelementptr inbounds nuw %struct.pseudo_merge, ptr %50, i32 0, i32 4
  %52 = load i8, ptr %51, align 8
  %53 = and i8 %52, -2
  %54 = or i8 %53, 1
  store i8 %54, ptr %51, align 8
  store i32 2, ptr %8, align 4
  br label %55

55:                                               ; preds = %48, %47, %39
  call void @llvm.lifetime.end.p0(i64 8, ptr %9) #10
  %56 = load i32, ptr %8, align 4
  switch i32 %56, label %64 [
    i32 4, label %57
    i32 2, label %60
  ]

57:                                               ; preds = %55
  %58 = load i64, ptr %7, align 8, !tbaa !36
  %59 = add i64 %58, 1
  store i64 %59, ptr %7, align 8, !tbaa !36
  br label %16, !llvm.loop !158

60:                                               ; preds = %55, %16
  %61 = load ptr, ptr %6, align 8, !tbaa !136
  store ptr %61, ptr %3, align 8
  store i32 1, ptr %8, align 4
  br label %62

62:                                               ; preds = %60, %14
  call void @llvm.lifetime.end.p0(i64 8, ptr %7) #10
  call void @llvm.lifetime.end.p0(i64 8, ptr %6) #10
  %63 = load ptr, ptr %3, align 8
  ret ptr %63

64:                                               ; preds = %55
  unreachable
}