; Function Attrs: nounwind uwtable
define dso_local ptr @pseudo_merge_for_parents(ptr noundef readonly captures(none) %0, ptr noundef %1) local_unnamed_addr #0 {
  %3 = alloca i64, align 8
  %4 = getelementptr inbounds nuw i8, ptr %0, i64 8
  %5 = load i64, ptr %4, align 8, !tbaa !102
  %.not = icmp eq i64 %5, 0
  br i1 %.not, label %.loopexit, label %.lr.ph

.lr.ph:                                           ; preds = %2
  %6 = getelementptr inbounds nuw i8, ptr %0, i64 24
  %7 = getelementptr inbounds nuw i8, ptr %0, i64 40
  br label %8

8:                                                ; preds = %.lr.ph, %32
  %.01628 = phi i64 [ 0, %.lr.ph ], [ %33, %32 ]
  %9 = load ptr, ptr %0, align 8, !tbaa !105
  %10 = getelementptr inbounds nuw %struct.pseudo_merge, ptr %9, i64 %.01628
  %11 = getelementptr inbounds nuw i8, ptr %10, i64 32
  %12 = load i8, ptr %11, align 8
  %13 = and i8 %12, 2
  %.not.i = icmp eq i8 %13, 0
  br i1 %.not.i, label %14, label %use_pseudo_merge.exit

14:                                               ; preds = %8
  call void @llvm.lifetime.start.p0(i64 8, ptr nonnull %3) #15
  %15 = getelementptr inbounds nuw i8, ptr %10, i64 16
  %16 = load i64, ptr %15, align 8, !tbaa !114
  store i64 %16, ptr %3, align 8, !tbaa !111
  %17 = load ptr, ptr %6, align 8, !tbaa !112
  %18 = load i64, ptr %7, align 8, !tbaa !113
  %19 = call ptr @read_bitmap(ptr noundef %17, i64 noundef %18, ptr noundef nonnull %3) #15
  store ptr %19, ptr %10, align 8, !tbaa !106
  %20 = load i64, ptr %3, align 8, !tbaa !111
  %21 = getelementptr inbounds nuw i8, ptr %10, i64 24
  store i64 %20, ptr %21, align 8, !tbaa !110
  %22 = load i8, ptr %11, align 8
  %23 = or i8 %22, 2
  store i8 %23, ptr %11, align 8
  call void @llvm.lifetime.end.p0(i64 8, ptr nonnull %3) #15
  %.pre = load i8, ptr %11, align 8
  br label %use_pseudo_merge.exit

use_pseudo_merge.exit:                            ; preds = %14, %8
  %24 = phi i8 [ %.pre, %14 ], [ %12, %8 ]
  %25 = and i8 %24, 1
  %.not20 = icmp eq i8 %25, 0
  br i1 %.not20, label %26, label %32

26:                                               ; preds = %use_pseudo_merge.exit
  %27 = load ptr, ptr %10, align 8, !tbaa !106
  %28 = call i32 @bitmap_equals_ewah(ptr noundef %1, ptr noundef %27) #15
  %.not21 = icmp eq i32 %28, 0
  br i1 %.not21, label %32, label %29

29:                                               ; preds = %26
  %30 = load i8, ptr %11, align 8
  %31 = or i8 %30, 1
  store i8 %31, ptr %11, align 8
  br label %.loopexit

32:                                               ; preds = %use_pseudo_merge.exit, %26
  %33 = add nuw i64 %.01628, 1
  %34 = load i64, ptr %4, align 8, !tbaa !102
  %35 = icmp ult i64 %33, %34
  br i1 %35, label %8, label %.loopexit, !llvm.loop !125

.loopexit:                                        ; preds = %32, %29, %2
  %.0 = phi ptr [ null, %2 ], [ %10, %29 ], [ null, %32 ]
  ret ptr %.0
}